target datalayout = "e-m:e-p270:32:32-p271:32:32-p272:64:64-i64:64-i128:128-f80:128-n8:16:32:64-S128"
target triple = "x86_64-pc-linux-gnu"

%struct.strbuf = type { i64, i64, ptr }

@.str.10 = private unnamed_addr constant [8 x i8] c"%lu %s=\00", align 1
@.str.11 = private unnamed_addr constant [14 x i8] c"archive-tar.c\00", align 1
@.str.12 = private unnamed_addr constant [63 x i8] c"pax extended header length miscalculated as %lu, should be %lu\00", align 1

; Function Attrs: inlinehint nounwind uwtable
define internal i64 @strbuf_avail(ptr noundef %0) #3 {
  %2 = alloca ptr, align 8
  store ptr %0, ptr %2, align 8, !tbaa !71
  %3 = load ptr, ptr %2, align 8, !tbaa !71
  %4 = getelementptr inbounds nuw %struct.strbuf, ptr %3, i32 0, i32 0
  %5 = load i64, ptr %4, align 8, !tbaa !76
  %6 = icmp ne i64 %5, 0
  br i1 %6, label %7, label %16

7:                                                ; preds = %1
  %8 = load ptr, ptr %2, align 8, !tbaa !71
  %9 = getelementptr inbounds nuw %struct.strbuf, ptr %8, i32 0, i32 0
  %10 = load i64, ptr %9, align 8, !tbaa !76
  %11 = load ptr, ptr %2, align 8, !tbaa !71
  %12 = getelementptr inbounds nuw %struct.strbuf, ptr %11, i32 0, i32 1
  %13 = load i64, ptr %12, align 8, !tbaa !66
  %14 = sub i64 %10, %13
  %15 = sub i64 %14, 1
  br label %17

16:                                               ; preds = %1
  br label %17

17:                                               ; preds = %16, %7
  %18 = phi i64 [ %15, %7 ], [ 0, %16 ]
  ret i64 %18
}

; Function Attrs: inlinehint nounwind uwtable
define internal void @strbuf_addch(ptr noundef %0, i32 noundef %1) #3 {
  %3 = alloca ptr, align 8
  %4 = alloca i32, align 4
  store ptr %0, ptr %3, align 8, !tbaa !71
  store i32 %1, ptr %4, align 4, !tbaa !4
  %5 = load ptr, ptr %3, align 8, !tbaa !71
  %6 = call i64 @strbuf_avail(ptr noundef %5)
  %7 = icmp ne i64 %6, 0
  br i1 %7, label %10, label %8

8:                                                ; preds = %2
  %9 = load ptr, ptr %3, align 8, !tbaa !71
  call void @strbuf_grow(ptr noundef %9, i64 noundef 1)
  br label %10

10:                                               ; preds = %8, %2
  %11 = load i32, ptr %4, align 4, !tbaa !4
  %12 = trunc i32 %11 to i8
  %13 = load ptr, ptr %3, align 8, !tbaa !71
  %14 = getelementptr inbounds nuw %struct.strbuf, ptr %13, i32 0, i32 2
  %15 = load ptr, ptr %14, align 8, !tbaa !69
  %16 = load ptr, ptr %3, align 8, !tbaa !71
  %17 = getelementptr inbounds nuw %struct.strbuf, ptr %16, i32 0, i32 1
  %18 = load i64, ptr %17, align 8, !tbaa !66
  %19 = add i64 %18, 1
  store i64 %19, ptr %17, align 8, !tbaa !66
  %20 = getelementptr inbounds nuw i8, ptr %15, i64 %18
  store i8 %12, ptr %20, align 1, !tbaa !68
  %21 = load ptr, ptr %3, align 8, !tbaa !71
  %22 = getelementptr inbounds nuw %struct.strbuf, ptr %21, i32 0, i32 2
  %23 = load ptr, ptr %22, align 8, !tbaa !69
  %24 = load ptr, ptr %3, align 8, !tbaa !71
  %25 = getelementptr inbounds nuw %struct.strbuf, ptr %24, i32 0, i32 1
  %26 = load i64, ptr %25, align 8, !tbaa !66
  %27 = getelementptr inbounds nuw i8, ptr %23, i64 %26
  store i8 0, ptr %27, align 1, !tbaa !68
  ret void
}

; Function Attrs: nounwind uwtable
define internal void @strbuf_append_ext_header(ptr noundef %0, ptr noundef %1, ptr noundef %2, i64 noundef %3) #0 {
  %5 = alloca ptr, align 8
  %6 = alloca ptr, align 8
  %7 = alloca ptr, align 8
  %8 = alloca i64, align 8
  %9 = alloca i64, align 8
  %10 = alloca i64, align 8
  %11 = alloca i64, align 8
  store ptr %0, ptr %5, align 8, !tbaa !71
  store ptr %1, ptr %6, align 8, !tbaa !18
  store ptr %2, ptr %7, align 8, !tbaa !18
  store i64 %3, ptr %8, align 8, !tbaa !20
  call void @llvm.lifetime.start.p0(i64 8, ptr %9) #9
  %12 = load ptr, ptr %5, align 8, !tbaa !71
  %13 = getelementptr inbounds nuw %struct.strbuf, ptr %12, i32 0, i32 1
  %14 = load i64, ptr %13, align 8, !tbaa !66
  store i64 %14, ptr %9, align 8, !tbaa !20
  call void @llvm.lifetime.start.p0(i64 8, ptr %10) #9
  call void @llvm.lifetime.start.p0(i64 8, ptr %11) #9
  %15 = load ptr, ptr %6, align 8, !tbaa !18
  %16 = call i64 @strlen(ptr noundef %15) #10
  %17 = add i64 2, %16
  %18 = add i64 %17, 1
  %19 = load i64, ptr %8, align 8, !tbaa !20
  %20 = add i64 %18, %19
  %21 = add i64 %20, 1
  store i64 %21, ptr %10, align 8, !tbaa !20
  store i64 1, ptr %11, align 8, !tbaa !20
  br label %22

22:                                               ; preds = %30, %4
  %23 = load i64, ptr %10, align 8, !tbaa !20
  %24 = udiv i64 %23, 10
  %25 = load i64, ptr %11, align 8, !tbaa !20
  %26 = icmp uge i64 %24, %25
  br i1 %26, label %27, label %33

27:                                               ; preds = %22
  %28 = load i64, ptr %10, align 8, !tbaa !20
  %29 = add i64 %28, 1
  store i64 %29, ptr %10, align 8, !tbaa !20
  br label %30

30:                                               ; preds = %27
  %31 = load i64, ptr %11, align 8, !tbaa !20
  %32 = mul i64 %31, 10
  store i64 %32, ptr %11, align 8, !tbaa !20
  br label %22, !llvm.loop !73

33:                                               ; preds = %22
  %34 = load ptr, ptr %5, align 8, !tbaa !71
  %35 = load i64, ptr %10, align 8, !tbaa !20
  call void @strbuf_grow(ptr noundef %34, i64 noundef %35)
  %36 = load ptr, ptr %5, align 8, !tbaa !71
  %37 = load i64, ptr %10, align 8, !tbaa !20
  %38 = load ptr, ptr %6, align 8, !tbaa !18
  call void (ptr, ptr, ...) @strbuf_addf(ptr noundef %36, ptr noundef @.str.10, i64 noundef %37, ptr noundef %38)
  %39 = load ptr, ptr %5, align 8, !tbaa !71
  %40 = load ptr, ptr %7, align 8, !tbaa !18
  %41 = load i64, ptr %8, align 8, !tbaa !20
  call void @strbuf_add(ptr noundef %39, ptr noundef %40, i64 noundef %41)
  %42 = load ptr, ptr %5, align 8, !tbaa !71
  call void @strbuf_addch(ptr noundef %42, i32 noundef 10)
  %43 = load i64, ptr %10, align 8, !tbaa !20
  %44 = load ptr, ptr %5, align 8, !tbaa !71
  %45 = getelementptr inbounds nuw %struct.strbuf, ptr %44, i32 0, i32 1
  %46 = load i64, ptr %45, align 8, !tbaa !66
  %47 = load i64, ptr %9, align 8, !tbaa !20
  %48 = sub i64 %46, %47
  %49 = icmp ne i64 %43, %48
  br i1 %49, label %50, label %57

50:                                               ; preds = %33
  %51 = load i64, ptr %10, align 8, !tbaa !20
  %52 = load ptr, ptr %5, align 8, !tbaa !71
  %53 = getelementptr inbounds nuw %struct.strbuf, ptr %52, i32 0, i32 1
  %54 = load i64, ptr %53, align 8, !tbaa !66
  %55 = load i64, ptr %9, align 8, !tbaa !20
  %56 = sub i64 %54, %55
  call void (ptr, i32, ptr, ...) @BUG_fl(ptr noundef @.str.11, i32 noundef 178, ptr noundef @.str.12, i64 noundef %51, i64 noundef %56) #11
  unreachable

57:                                               ; preds = %33
  call void @llvm.lifetime.end.p0(i64 8, ptr %11) #9
  call void @llvm.lifetime.end.p0(i64 8, ptr %10) #9
  call void @llvm.lifetime.end.p0(i64 8, ptr %9) #9
  ret void
}